target datalayout = "e-m:e-p270:32:32-p271:32:32-p272:64:64-i64:64-i128:128-f80:128-n8:16:32:64-S128"
target triple = "x86_64-pc-linux-gnu"

%"class.ceres::internal::CompressedRowSparseMatrix" = type { %"class.ceres::internal::SparseMatrix", i32, i32, %"class.std::vector", %"class.std::vector", %"class.std::vector.1", i32, %"class.std::vector.6", %"class.std::vector.6" }
%"class.ceres::internal::SparseMatrix" = type { %"class.ceres::internal::LinearOperator" }
%"class.ceres::internal::LinearOperator" = type { ptr }
%"class.std::vector" = type { %"struct.std::_Vector_base" }
%"struct.std::_Vector_base" = type { %"struct.std::_Vector_base<int, std::allocator<int>>::_Vector_impl" }
%"struct.std::_Vector_base<int, std::allocator<int>>::_Vector_impl" = type { %"struct.std::_Vector_base<int, std::allocator<int>>::_Vector_impl_data" }
%"struct.std::_Vector_base<int, std::allocator<int>>::_Vector_impl_data" = type { ptr, ptr, ptr }
%"class.std::vector.1" = type { %"struct.std::_Vector_base.2" }
%"struct.std::_Vector_base.2" = type { %"struct.std::_Vector_base<double, std::allocator<double>>::_Vector_impl" }
%"struct.std::_Vector_base<double, std::allocator<double>>::_Vector_impl" = type { %"struct.std::_Vector_base<double, std::allocator<double>>::_Vector_impl_data" }
%"struct.std::_Vector_base<double, std::allocator<double>>::_Vector_impl_data" = type { ptr, ptr, ptr }
%"class.std::vector.6" = type { %"struct.std::_Vector_base.7" }
%"struct.std::_Vector_base.7" = type { %"struct.std::_Vector_base<ceres::internal::Block, std::allocator<ceres::internal::Block>>::_Vector_impl" }
%"struct.std::_Vector_base<ceres::internal::Block, std::allocator<ceres::internal::Block>>::_Vector_impl" = type { %"struct.std::_Vector_base<ceres::internal::Block, std::allocator<ceres::internal::Block>>::_Vector_impl_data" }
%"struct.std::_Vector_base<ceres::internal::Block, std::allocator<ceres::internal::Block>>::_Vector_impl_data" = type { ptr, ptr, ptr }
%"class.__gnu_cxx::__normal_iterator.44" = type { ptr }

; Function Attrs: inlinehint mustprogress nounwind uwtable
define linkonce_odr void @_ZSt9__fill_a1IPdiEN9__gnu_cxx11__enable_ifIXsr11__is_scalarIT0_EE7__valueEvE6__typeET_S6_RKS3_(ptr noundef %0, ptr noundef %1, ptr noundef nonnull align 4 dereferenceable(4) %2) #4 comdat {
  %4 = alloca ptr, align 8
  %5 = alloca ptr, align 8
  %6 = alloca ptr, align 8
  %7 = alloca i32, align 4
  store ptr %0, ptr %4, align 8, !tbaa !56
  store ptr %1, ptr %5, align 8, !tbaa !56
  store ptr %2, ptr %6, align 8, !tbaa !54
  call void @llvm.lifetime.start.p0(i64 4, ptr %7) #26
  %8 = load ptr, ptr %6, align 8, !tbaa !54
  %9 = load i32, ptr %8, align 4, !tbaa !16
  store i32 %9, ptr %7, align 4, !tbaa !16
  br label %10

10:                                               ; preds = %18, %3
  %11 = load ptr, ptr %4, align 8, !tbaa !56
  %12 = load ptr, ptr %5, align 8, !tbaa !56
  %13 = icmp ne ptr %11, %12
  br i1 %13, label %14, label %21

14:                                               ; preds = %10
  %15 = load i32, ptr %7, align 4, !tbaa !16
  %16 = sitofp i32 %15 to double
  %17 = load ptr, ptr %4, align 8, !tbaa !56
  store double %16, ptr %17, align 8, !tbaa !42
  br label %18

18:                                               ; preds = %14
  %19 = load ptr, ptr %4, align 8, !tbaa !56
  %20 = getelementptr inbounds nuw double, ptr %19, i32 1
  store ptr %20, ptr %4, align 8, !tbaa !56
  br label %10, !llvm.loop !393

21:                                               ; preds = %10
  call void @llvm.lifetime.end.p0(i64 4, ptr %7) #26
  ret void
}

; Function Attrs: mustprogress nounwind uwtable
define linkonce_odr hidden noundef nonnull align 8 dereferenceable(8) ptr @_ZNK9__gnu_cxx17__normal_iteratorIPdSt6vectorIdSaIdEEE4baseEv(ptr noundef nonnull align 8 dereferenceable(8) %0) #1 comdat align 2 {
  %2 = alloca ptr, align 8
  store ptr %0, ptr %2, align 8, !tbaa !344
  %3 = load ptr, ptr %2, align 8
  %4 = getelementptr inbounds nuw %"class.__gnu_cxx::__normal_iterator.44", ptr %3, i32 0, i32 0
  ret ptr %4
}

; Function Attrs: inlinehint mustprogress uwtable
define linkonce_odr void @_ZSt9__fill_a1IPdSt6vectorIdSaIdEEiEvN9__gnu_cxx17__normal_iteratorIT_T0_EES8_RKT1_(ptr %0, ptr %1, ptr noundef nonnull align 4 dereferenceable(4) %2) #10 comdat {
  %4 = alloca %"class.__gnu_cxx::__normal_iterator.44", align 8
  %5 = alloca %"class.__gnu_cxx::__normal_iterator.44", align 8
  %6 = alloca ptr, align 8
  %7 = getelementptr inbounds nuw %"class.__gnu_cxx::__normal_iterator.44", ptr %4, i32 0, i32 0
  store ptr %0, ptr %7, align 8
  %8 = getelementptr inbounds nuw %"class.__gnu_cxx::__normal_iterator.44", ptr %5, i32 0, i32 0
  store ptr %1, ptr %8, align 8
  store ptr %2, ptr %6, align 8, !tbaa !54
  %9 = call noundef nonnull align 8 dereferenceable(8) ptr @_ZNK9__gnu_cxx17__normal_iteratorIPdSt6vectorIdSaIdEEE4baseEv(ptr noundef nonnull align 8 dereferenceable(8) %4) #26
  %10 = load ptr, ptr %9, align 8, !tbaa !56
  %11 = call noundef nonnull align 8 dereferenceable(8) ptr @_ZNK9__gnu_cxx17__normal_iteratorIPdSt6vectorIdSaIdEEE4baseEv(ptr noundef nonnull align 8 dereferenceable(8) %5) #26
  %12 = load ptr, ptr %11, align 8, !tbaa !56
  %13 = load ptr, ptr %6, align 8, !tbaa !54
  call void @_ZSt9__fill_a1IPdiEN9__gnu_cxx11__enable_ifIXsr11__is_scalarIT0_EE7__valueEvE6__typeET_S6_RKS3_(ptr noundef %10, ptr noundef %12, ptr noundef nonnull align 4 dereferenceable(4) %13)
  ret void
}

; Function Attrs: inlinehint mustprogress uwtable
define linkonce_odr void @_ZSt8__fill_aIN9__gnu_cxx17__normal_iteratorIPdSt6vectorIdSaIdEEEEiEvT_S7_RKT0_(ptr %0, ptr %1, ptr noundef nonnull align 4 dereferenceable(4) %2) #10 comdat {
  %4 = alloca %"class.__gnu_cxx::__normal_iterator.44", align 8
  %5 = alloca %"class.__gnu_cxx::__normal_iterator.44", align 8
  %6 = alloca ptr, align 8
  %7 = alloca %"class.__gnu_cxx::__normal_iterator.44", align 8
  %8 = alloca %"class.__gnu_cxx::__normal_iterator.44", align 8
  %9 = getelementptr inbounds nuw %"class.__gnu_cxx::__normal_iterator.44", ptr %4, i32 0, i32 0
  store ptr %0, ptr %9, align 8
  %10 = getelementptr inbounds nuw %"class.__gnu_cxx::__normal_iterator.44", ptr %5, i32 0, i32 0
  store ptr %1, ptr %10, align 8
  store ptr %2, ptr %6, align 8, !tbaa !54
  call void @llvm.memcpy.p0.p0.i64(ptr align 8 %7, ptr align 8 %4, i64 8, i1 false), !tbaa.struct !120
  call void @llvm.memcpy.p0.p0.i64(ptr align 8 %8, ptr align 8 %5, i64 8, i1 false), !tbaa.struct !120
  %11 = load ptr, ptr %6, align 8, !tbaa !54
  %12 = getelementptr inbounds nuw %"class.__gnu_cxx::__normal_iterator.44", ptr %7, i32 0, i32 0
  %13 = load ptr, ptr %12, align 8
  %14 = getelementptr inbounds nuw %"class.__gnu_cxx::__normal_iterator.44", ptr %8, i32 0, i32 0
  %15 = load ptr, ptr %14, align 8
  call void @_ZSt9__fill_a1IPdSt6vectorIdSaIdEEiEvN9__gnu_cxx17__normal_iteratorIT_T0_EES8_RKT1_(ptr %13, ptr %15, ptr noundef nonnull align 4 dereferenceable(4) %11)
  ret void
}

; Function Attrs: mustprogress nounwind uwtable
define linkonce_odr hidden void @_ZN9__gnu_cxx17__normal_iteratorIPdSt6vectorIdSaIdEEEC2ERKS1_(ptr noundef nonnull align 8 dereferenceable(8) %0, ptr noundef nonnull align 8 dereferenceable(8) %1) unnamed_addr #1 comdat align 2 {
  %3 = alloca ptr, align 8
  %4 = alloca ptr, align 8
  store ptr %0, ptr %3, align 8, !tbaa !344
  store ptr %1, ptr %4, align 8, !tbaa !348
  %5 = load ptr, ptr %3, align 8
  %6 = getelementptr inbounds nuw %"class.__gnu_cxx::__normal_iterator.44", ptr %5, i32 0, i32 0
  %7 = load ptr, ptr %4, align 8, !tbaa !348
  %8 = load ptr, ptr %7, align 8, !tbaa !56
  store ptr %8, ptr %6, align 8, !tbaa !391
  ret void
}

; Function Attrs: inlinehint mustprogress uwtable
define linkonce_odr void @_ZSt4fillIN9__gnu_cxx17__normal_iteratorIPdSt6vectorIdSaIdEEEEiEvT_S7_RKT0_(ptr %0, ptr %1, ptr noundef nonnull align 4 dereferenceable(4) %2) #10 comdat {
  %4 = alloca %"class.__gnu_cxx::__normal_iterator.44", align 8
  %5 = alloca %"class.__gnu_cxx::__normal_iterator.44", align 8
  %6 = alloca ptr, align 8
  %7 = alloca %"class.__gnu_cxx::__normal_iterator.44", align 8
  %8 = alloca %"class.__gnu_cxx::__normal_iterator.44", align 8
  %9 = getelementptr inbounds nuw %"class.__gnu_cxx::__normal_iterator.44", ptr %4, i32 0, i32 0
  store ptr %0, ptr %9, align 8
  %10 = getelementptr inbounds nuw %"class.__gnu_cxx::__normal_iterator.44", ptr %5, i32 0, i32 0
  store ptr %1, ptr %10, align 8
  store ptr %2, ptr %6, align 8, !tbaa !54
  call void @llvm.memcpy.p0.p0.i64(ptr align 8 %7, ptr align 8 %4, i64 8, i1 false), !tbaa.struct !120
  call void @llvm.memcpy.p0.p0.i64(ptr align 8 %8, ptr align 8 %5, i64 8, i1 false), !tbaa.struct !120
  %11 = load ptr, ptr %6, align 8, !tbaa !54
  %12 = getelementptr inbounds nuw %"class.__gnu_cxx::__normal_iterator.44", ptr %7, i32 0, i32 0
  %13 = load ptr, ptr %12, align 8
  %14 = getelementptr inbounds nuw %"class.__gnu_cxx::__normal_iterator.44", ptr %8, i32 0, i32 0
  %15 = load ptr, ptr %14, align 8
  call void @_ZSt8__fill_aIN9__gnu_cxx17__normal_iteratorIPdSt6vectorIdSaIdEEEEiEvT_S7_RKT0_(ptr %13, ptr %15, ptr noundef nonnull align 4 dereferenceable(4) %11)
  ret void
}

; Function Attrs: mustprogress nounwind uwtable
define linkonce_odr hidden ptr @_ZNSt6vectorIdSaIdEE3endEv(ptr noundef nonnull align 8 dereferenceable(24) %0) #1 comdat align 2 {
  %2 = alloca %"class.__gnu_cxx::__normal_iterator.44", align 8
  %3 = alloca ptr, align 8
  store ptr %0, ptr %3, align 8, !tbaa !48
  %4 = load ptr, ptr %3, align 8
  %5 = getelementptr inbounds nuw %"struct.std::_Vector_base.2", ptr %4, i32 0, i32 0
  %6 = getelementptr inbounds nuw %"struct.std::_Vector_base<double, std::allocator<double>>::_Vector_impl_data", ptr %5, i32 0, i32 1
  call void @_ZN9__gnu_cxx17__normal_iteratorIPdSt6vectorIdSaIdEEEC2ERKS1_(ptr noundef nonnull align 8 dereferenceable(8) %2, ptr noundef nonnull align 8 dereferenceable(8) %6) #26
  %7 = getelementptr inbounds nuw %"class.__gnu_cxx::__normal_iterator.44", ptr %2, i32 0, i32 0
  %8 = load ptr, ptr %7, align 8
  ret ptr %8
}

; Function Attrs: mustprogress nounwind uwtable
define linkonce_odr hidden ptr @_ZNSt6vectorIdSaIdEE5beginEv(ptr noundef nonnull align 8 dereferenceable(24) %0) #1 comdat align 2 {
  %2 = alloca %"class.__gnu_cxx::__normal_iterator.44", align 8
  %3 = alloca ptr, align 8
  store ptr %0, ptr %3, align 8, !tbaa !48
  %4 = load ptr, ptr %3, align 8
  %5 = getelementptr inbounds nuw %"struct.std::_Vector_base.2", ptr %4, i32 0, i32 0
  %6 = getelementptr inbounds nuw %"struct.std::_Vector_base<double, std::allocator<double>>::_Vector_impl_data", ptr %5, i32 0, i32 0
  call void @_ZN9__gnu_cxx17__normal_iteratorIPdSt6vectorIdSaIdEEEC2ERKS1_(ptr noundef nonnull align 8 dereferenceable(8) %2, ptr noundef nonnull align 8 dereferenceable(8) %6) #26
  %7 = getelementptr inbounds nuw %"class.__gnu_cxx::__normal_iterator.44", ptr %2, i32 0, i32 0
  %8 = load ptr, ptr %7, align 8
  ret ptr %8
}

; Function Attrs: mustprogress uwtable
define hidden void @_ZN5ceres8internal25CompressedRowSparseMatrix7SetZeroEv(ptr noundef nonnull align 8 dereferenceable(144) %0) unnamed_addr #3 align 2 {
  %2 = alloca ptr, align 8
  %3 = alloca %"class.__gnu_cxx::__normal_iterator.44", align 8
  %4 = alloca %"class.__gnu_cxx::__normal_iterator.44", align 8
  %5 = alloca i32, align 4
  store ptr %0, ptr %2, align 8, !tbaa !14
  %6 = load ptr, ptr %2, align 8
  %7 = getelementptr inbounds nuw %"class.ceres::internal::CompressedRowSparseMatrix", ptr %6, i32 0, i32 5
  %8 = call ptr @_ZNSt6vectorIdSaIdEE5beginEv(ptr noundef nonnull align 8 dereferenceable(24) %7) #26
  %9 = getelementptr inbounds nuw %"class.__gnu_cxx::__normal_iterator.44", ptr %3, i32 0, i32 0
  store ptr %8, ptr %9, align 8
  %10 = getelementptr inbounds nuw %"class.ceres::internal::CompressedRowSparseMatrix", ptr %6, i32 0, i32 5
  %11 = call ptr @_ZNSt6vectorIdSaIdEE3endEv(ptr noundef nonnull align 8 dereferenceable(24) %10) #26
  %12 = getelementptr inbounds nuw %"class.__gnu_cxx::__normal_iterator.44", ptr %4, i32 0, i32 0
  store ptr %11, ptr %12, align 8
  call void @llvm.lifetime.start.p0(i64 4, ptr %5) #26
  store i32 0, ptr %5, align 4, !tbaa !16
  %13 = getelementptr inbounds nuw %"class.__gnu_cxx::__normal_iterator.44", ptr %3, i32 0, i32 0
  %14 = load ptr, ptr %13, align 8
  %15 = getelementptr inbounds nuw %"class.__gnu_cxx::__normal_iterator.44", ptr %4, i32 0, i32 0
  %16 = load ptr, ptr %15, align 8
  call void @_ZSt4fillIN9__gnu_cxx17__normal_iteratorIPdSt6vectorIdSaIdEEEEiEvT_S7_RKT0_(ptr %14, ptr %16, ptr noundef nonnull align 4 dereferenceable(4) %5)
  call void @llvm.lifetime.end.p0(i64 4, ptr %5) #26
  ret void
}