; Function Attrs: mustprogress nofree norecurse nosync nounwind willreturn memory(write, argmem: readwrite, inaccessiblemem: none) uwtable
define hidden void @_ZN5ceres8internal25CompressedRowSparseMatrix7SetZeroEv(ptr noundef nonnull readonly align 8 captures(none) dereferenceable(144) %0) unnamed_addr #9 align 2 {
  %2 = getelementptr inbounds nuw i8, ptr %0, i64 64
  %3 = load ptr, ptr %2, align 8, !tbaa !61
  %4 = getelementptr inbounds nuw i8, ptr %0, i64 72
  %5 = load ptr, ptr %4, align 8, !tbaa !61
  %.not5.i.i.i.i = icmp eq ptr %3, %5
  br i1 %.not5.i.i.i.i, label %_ZSt4fillIN9__gnu_cxx17__normal_iteratorIPdSt6vectorIdSaIdEEEEiEvT_S7_RKT0_.exit, label %.lr.ph.i.i.i.i.preheader

.lr.ph.i.i.i.i.preheader:                         ; preds = %1
  %6 = ptrtoint ptr %5 to i64
  %7 = ptrtoint ptr %3 to i64
  %8 = add i64 %6, -8
  %9 = sub i64 %8, %7
  %10 = and i64 %9, -8
  %11 = add i64 %10, 8
  tail call void @llvm.memset.p0.i64(ptr align 8 %3, i8 0, i64 %11, i1 false), !tbaa !34
  br label %_ZSt4fillIN9__gnu_cxx17__normal_iteratorIPdSt6vectorIdSaIdEEEEiEvT_S7_RKT0_.exit

_ZSt4fillIN9__gnu_cxx17__normal_iteratorIPdSt6vectorIdSaIdEEEEiEvT_S7_RKT0_.exit: ; preds = %.lr.ph.i.i.i.i.preheader, %1
  ret void
}